; Function Attrs: null_pointer_is_valid sspstrong uwtable
define internal noundef i32 @jxta_conversation_packet(ptr noundef initializes((24, 28)) %0, ptr readnone captures(none) %1, ptr readnone captures(none) %2, ptr noundef %3, i32 noundef %4) #0 {
  %6 = getelementptr inbounds nuw i8, ptr %0, i64 24
  store i32 %4, ptr %6, align 8
  %7 = getelementptr inbounds nuw i8, ptr %3, i64 24
  %8 = getelementptr inbounds nuw i8, ptr %3, i64 48
  %9 = load i32, ptr %8, align 8
  tail call void @add_conversation_table_data(ptr noundef %0, ptr noundef %3, ptr noundef nonnull %7, i32 noundef 0, i32 noundef 0, i32 noundef 1, i32 noundef %9, ptr noundef null, ptr noundef null, ptr noundef nonnull @jxta_ct_dissector_info, i32 noundef 0)
  ret i32 1
}